; Function Attrs: mustprogress uwtable
define noundef zeroext i1 @_ZNK10open_spiel7othello12OthelloState14NoValidActionsEv(ptr noundef nonnull readonly align 8 captures(none) dereferenceable(324) %0) local_unnamed_addr #3 align 2 personality ptr @__gxx_personality_v0 {
  %2 = alloca %"class.std::vector.7", align 8
  %3 = alloca %"class.std::vector.7", align 8
  call void @_ZNK10open_spiel7othello12OthelloState19LegalRegularActionsEi(ptr dead_on_unwind nonnull writable sret(%"class.std::vector.7") align 8 %2, ptr noundef nonnull align 8 dereferenceable(324) %0, i32 noundef 0)
  %4 = load ptr, ptr %2, align 8
  %5 = getelementptr inbounds nuw i8, ptr %2, i64 8
  %6 = load ptr, ptr %5, align 8
  %7 = icmp eq ptr %4, %6
  br i1 %7, label %8, label %_ZNSt6vectorIlSaIlEED2Ev.exit

8:                                                ; preds = %1
  invoke void @_ZNK10open_spiel7othello12OthelloState19LegalRegularActionsEi(ptr dead_on_unwind nonnull writable sret(%"class.std::vector.7") align 8 %3, ptr noundef nonnull align 8 dereferenceable(324) %0, i32 noundef 1)
          to label %9 unwind label %27

9:                                                ; preds = %8
  %10 = load ptr, ptr %3, align 8
  %11 = getelementptr inbounds nuw i8, ptr %3, i64 8
  %12 = load ptr, ptr %11, align 8
  %13 = icmp eq ptr %10, %12
  %.not.i.i.i = icmp eq ptr %10, null
  br i1 %.not.i.i.i, label %_ZNSt6vectorIlSaIlEED2Ev.exit, label %14

14:                                               ; preds = %9
  %15 = getelementptr inbounds nuw i8, ptr %3, i64 16
  %16 = load ptr, ptr %15, align 8
  %17 = ptrtoint ptr %16 to i64
  %18 = ptrtoint ptr %10 to i64
  %19 = sub i64 %17, %18
  tail call void @_ZdlPvm(ptr noundef nonnull %10, i64 noundef %19) #27
  br label %_ZNSt6vectorIlSaIlEED2Ev.exit

_ZNSt6vectorIlSaIlEED2Ev.exit:                    ; preds = %14, %9, %1
  %20 = phi i1 [ false, %1 ], [ %13, %9 ], [ %13, %14 ]
  %.not.i.i.i4 = icmp eq ptr %4, null
  br i1 %.not.i.i.i4, label %_ZNSt6vectorIlSaIlEED2Ev.exit5, label %21

21:                                               ; preds = %_ZNSt6vectorIlSaIlEED2Ev.exit
  %22 = getelementptr inbounds nuw i8, ptr %2, i64 16
  %23 = load ptr, ptr %22, align 8
  %24 = ptrtoint ptr %23 to i64
  %25 = ptrtoint ptr %4 to i64
  %26 = sub i64 %24, %25
  tail call void @_ZdlPvm(ptr noundef nonnull %4, i64 noundef %26) #27
  br label %_ZNSt6vectorIlSaIlEED2Ev.exit5

_ZNSt6vectorIlSaIlEED2Ev.exit5:                   ; preds = %_ZNSt6vectorIlSaIlEED2Ev.exit, %21
  ret i1 %20

27:                                               ; preds = %8
  %28 = landingpad { ptr, i32 }
          cleanup
  %.not.i.i.i6 = icmp eq ptr %4, null
  br i1 %.not.i.i.i6, label %_ZNSt6vectorIlSaIlEED2Ev.exit7, label %29

29:                                               ; preds = %27
  %30 = getelementptr inbounds nuw i8, ptr %2, i64 16
  %31 = load ptr, ptr %30, align 8
  %32 = ptrtoint ptr %31 to i64
  %33 = ptrtoint ptr %4 to i64
  %34 = sub i64 %32, %33
  tail call void @_ZdlPvm(ptr noundef nonnull %4, i64 noundef %34) #27
  br label %_ZNSt6vectorIlSaIlEED2Ev.exit7

_ZNSt6vectorIlSaIlEED2Ev.exit7:                   ; preds = %27, %29
  resume { ptr, i32 } %28
}